target datalayout = "e-m:e-p270:32:32-p271:32:32-p272:64:64-i64:64-i128:128-f80:128-n8:16:32:64-S128"
target triple = "x86_64-pc-linux-gnu"

@_ZN7rocksdb16ThreadStatusUtil27thread_updater_local_cache_E = thread_local global ptr null, align 8

; Function Attrs: mustprogress uwtable
define void @_ZN7rocksdb16ThreadStatusUtil14SetThreadStateENS_12ThreadStatus9StateTypeE(i32 noundef %0) #3 align 2 {
  %2 = alloca i32, align 4
  store i32 %0, ptr %2, align 4, !tbaa !59
  %3 = call align 8 ptr @llvm.threadlocal.address.p0(ptr align 8 @_ZN7rocksdb16ThreadStatusUtil27thread_updater_local_cache_E)
  %4 = load ptr, ptr %3, align 8, !tbaa !43
  %5 = icmp eq ptr %4, null
  br i1 %5, label %6, label %7

6:                                                ; preds = %1
  br label %11

7:                                                ; preds = %1
  %8 = call align 8 ptr @llvm.threadlocal.address.p0(ptr align 8 @_ZN7rocksdb16ThreadStatusUtil27thread_updater_local_cache_E)
  %9 = load ptr, ptr %8, align 8, !tbaa !43
  %10 = load i32, ptr %2, align 4, !tbaa !59
  call void @_ZN7rocksdb19ThreadStatusUpdater14SetThreadStateENS_12ThreadStatus9StateTypeE(ptr noundef nonnull align 8 dereferenceable(216) %9, i32 noundef %10)
  br label %11

11:                                               ; preds = %7, %6
  ret void
}